; Function Attrs: mustprogress uwtable
define hidden noalias noundef ptr @_ZN7datalog27explanation_relation_plugin24mk_filter_by_negation_fnERKNS_13relation_baseES3_jPKjS5_(ptr noundef nonnull readnone align 8 dereferenceable(64) %this, ptr nocapture noundef nonnull readonly align 8 dereferenceable(28) %r, ptr nocapture noundef nonnull readonly align 8 dereferenceable(28) %neg, i32 %joined_col_cnt, ptr nocapture readnone %t_cols, ptr nocapture readnone %negated_cols) unnamed_addr #3 align 2 {
entry:
  %m_plugin.i = getelementptr inbounds i8, ptr %r, i64 8
  %0 = load ptr, ptr %m_plugin.i, align 8
  %cmp.not = icmp eq ptr %0, %this
  %m_plugin.i1 = getelementptr inbounds i8, ptr %neg, i64 8
  %1 = load ptr, ptr %m_plugin.i1, align 8
  %cmp3.not = icmp eq ptr %1, %this
  %or.cond = select i1 %cmp.not, i1 %cmp3.not, i1 false
  br i1 %or.cond, label %if.end, label %return

if.end:                                           ; preds = %entry
  %call4 = tail call noalias noundef ptr @_ZN6memory8allocateEm(i64 noundef 8)
  store ptr getelementptr inbounds ({ [5 x ptr] }, ptr @_ZTVN7datalog27explanation_relation_plugin18negation_filter_fnE, i64 0, i32 0, i64 2), ptr %call4, align 8
  br label %return

return:                                           ; preds = %entry, %if.end
  %retval.0 = phi ptr [ %call4, %if.end ], [ null, %entry ]
  ret ptr %retval.0
}